target datalayout = "e-m:e-p270:32:32-p271:32:32-p272:64:64-i64:64-i128:128-f80:128-n8:16:32:64-S128"
target triple = "x86_64-pc-linux-gnu"

%"struct.clang::DeductionFailureInfo" = type { i16, ptr, [32 x i8] }
%"class.clang::TemplateArgument" = type { %union.anon.432 }
%union.anon.432 = type { %"struct.clang::TemplateArgument::DA" }
%"struct.clang::TemplateArgument::DA" = type { i32, ptr, ptr }
%"struct.(anonymous namespace)::DFIArguments" = type { %"class.clang::TemplateArgument", %"class.clang::TemplateArgument" }

; Function Attrs: mustprogress nounwind uwtable
define dso_local noundef ptr @_ZN5clang20DeductionFailureInfo12getSecondArgEv(ptr noundef nonnull align 8 dereferenceable(48) %0) #0 align 2 {
  %2 = alloca ptr, align 8
  %3 = alloca ptr, align 8
  store ptr %0, ptr %3, align 8
  %4 = load ptr, ptr %3, align 8
  %5 = load i16, ptr %4, align 8
  %6 = and i16 %5, 255
  %7 = zext i16 %6 to i32
  switch i32 %7, label %14 [
    i32 0, label %8
    i32 1, label %8
    i32 2, label %8
    i32 3, label %8
    i32 4, label %8
    i32 11, label %8
    i32 12, label %8
    i32 13, label %8
    i32 7, label %8
    i32 17, label %8
    i32 14, label %8
    i32 15, label %8
    i32 5, label %9
    i32 6, label %9
    i32 8, label %9
    i32 9, label %9
    i32 10, label %9
    i32 16, label %13
    i32 18, label %13
  ]

8:                                                ; preds = %1, %1, %1, %1, %1, %1, %1, %1, %1, %1, %1, %1
  store ptr null, ptr %2, align 8
  br label %15

9:                                                ; preds = %1, %1, %1, %1, %1
  %10 = getelementptr inbounds nuw %"struct.clang::DeductionFailureInfo", ptr %4, i32 0, i32 1
  %11 = load ptr, ptr %10, align 8
  %12 = getelementptr inbounds nuw %"struct.(anonymous namespace)::DFIArguments", ptr %11, i32 0, i32 1
  store ptr %12, ptr %2, align 8
  br label %15

13:                                               ; preds = %1, %1
  br label %14

14:                                               ; preds = %13, %1
  store ptr null, ptr %2, align 8
  br label %15

15:                                               ; preds = %14, %9, %8
  %16 = load ptr, ptr %2, align 8
  ret ptr %16
}