; Function Attrs: mustprogress nofree norecurse nosync nounwind willreturn memory(argmem: read) uwtable
define dso_local noundef ptr @_ZN5clang20DeductionFailureInfo12getSecondArgEv(ptr nocapture noundef nonnull readonly align 8 dereferenceable(48) %0) local_unnamed_addr #2 align 2 {
  %2 = load i16, ptr %0, align 8
  %trunc = trunc i16 %2 to i8
  switch i8 %trunc, label %7 [
    i8 10, label %3
    i8 9, label %3
    i8 8, label %3
    i8 6, label %3
    i8 5, label %3
  ]

3:                                                ; preds = %1, %1, %1, %1, %1
  %4 = getelementptr inbounds nuw i8, ptr %0, i64 8
  %5 = load ptr, ptr %4, align 8
  %6 = getelementptr inbounds nuw i8, ptr %5, i64 24
  br label %7

7:                                                ; preds = %1, %3
  %.0 = phi ptr [ %6, %3 ], [ null, %1 ]
  ret ptr %.0
}